target datalayout = "e-m:e-p270:32:32-p271:32:32-p272:64:64-i64:64-i128:128-f80:128-n8:16:32:64-S128"
target triple = "x86_64-unknown-linux-gnu"

%"class.grpc_core::Timestamp" = type { i64 }
%"class.grpc_core::RefCountedPtr" = type { ptr }
%"struct.grpc_core::DynamicFilters::Call::Args" = type { %"class.grpc_core::RefCountedPtr", ptr, %struct.grpc_slice, double, %"class.grpc_core::Timestamp", ptr, ptr, ptr }
%struct.grpc_slice = type { ptr, %"union.grpc_slice::grpc_slice_data" }
%"union.grpc_slice::grpc_slice_data" = type { %"struct.grpc_slice::grpc_slice_data::grpc_slice_refcounted", [8 x i8] }
%"struct.grpc_slice::grpc_slice_data::grpc_slice_refcounted" = type { i64, ptr }
%"class.grpc_core::DynamicFilters" = type { %"class.grpc_core::RefCounted", %"class.grpc_core::RefCountedPtr.0" }
%"class.grpc_core::RefCounted" = type { %"class.grpc_core::PolymorphicRefCount", %"class.grpc_core::RefCount" }
%"class.grpc_core::PolymorphicRefCount" = type { ptr }
%"class.grpc_core::RefCount" = type { %"struct.std::atomic" }
%"struct.std::atomic" = type { %"struct.std::__atomic_base" }
%"struct.std::__atomic_base" = type { i64 }
%"class.grpc_core::RefCountedPtr.0" = type { ptr }
%"class.grpc_core::RefCountedPtr.3" = type { ptr }
%struct.grpc_stream_refcount = type { %"class.grpc_core::RefCount", %struct.grpc_closure }
%struct.grpc_closure = type { %union.anon.4, ptr, ptr, %union.anon.5 }
%union.anon.4 = type { ptr }
%union.anon.5 = type { i64 }
%struct.grpc_channel_stack = type { %struct.grpc_stream_refcount, i64, i64, %"class.grpc_core::ManualConstructor.12", %"class.grpc_core::ManualConstructor.13" }
%"class.grpc_core::ManualConstructor.12" = type { [32 x i8] }
%"class.grpc_core::ManualConstructor.13" = type { [16 x i8] }
%"class.grpc_core::Arena" = type { %"struct.std::atomic.14", %"struct.std::atomic.14", i64, %"struct.std::atomic.16", %"struct.std::atomic.18", ptr }
%"struct.std::atomic.14" = type { %"struct.std::__atomic_base.15" }
%"struct.std::__atomic_base.15" = type { i64 }
%"struct.std::atomic.16" = type { %"struct.std::__atomic_base.17" }
%"struct.std::__atomic_base.17" = type { ptr }
%"struct.std::atomic.18" = type { %"struct.std::__atomic_base.19" }
%"struct.std::__atomic_base.19" = type { ptr }

@_ZN9grpc_core14DynamicFilters4CallC1ENS1_4ArgsEPN4absl12lts_202308026StatusE = unnamed_addr alias void (ptr, ptr, ptr), ptr @_ZN9grpc_core14DynamicFilters4CallC2ENS1_4ArgsEPN4absl12lts_202308026StatusE

; Function Attrs: mustprogress nounwind uwtable
define linkonce_odr void @_ZNK9grpc_core11UnrefDeleteclIKNS_14DynamicFiltersEEEvPT_(ptr noundef nonnull align 1 dereferenceable(1) %this, ptr noundef %p) #5 comdat align 2 {
entry:
  %this.addr = alloca ptr, align 8
  %p.addr = alloca ptr, align 8
  store ptr %this, ptr %this.addr, align 8
  store ptr %p, ptr %p.addr, align 8
  %0 = load ptr, ptr %p.addr, align 8
  %isnull = icmp eq ptr %0, null
  br i1 %isnull, label %delete.end, label %delete.notnull

delete.notnull:                                   ; preds = %entry
  %vtable = load ptr, ptr %0, align 8
  %vfn = getelementptr inbounds ptr, ptr %vtable, i64 1
  %1 = load ptr, ptr %vfn, align 8
  call void %1(ptr noundef nonnull align 8 dereferenceable(24) %0) #3
  br label %delete.end

delete.end:                                       ; preds = %delete.notnull, %entry
  ret void
}

; Function Attrs: mustprogress nounwind uwtable
define linkonce_odr noundef zeroext i1 @_ZN9grpc_core8RefCount5UnrefEv(ptr noundef nonnull align 8 dereferenceable(8) %this) #5 comdat align 2 {
entry:
  %this.addr.i = alloca ptr, align 8
  %__i.addr.i = alloca i64, align 8
  %__m.addr.i = alloca i32, align 4
  %.atomictmp.i = alloca i64, align 8
  %atomic-temp.i = alloca i64, align 8
  %this.addr = alloca ptr, align 8
  %prior = alloca i64, align 8
  store ptr %this, ptr %this.addr, align 8
  %this1 = load ptr, ptr %this.addr, align 8
  %value_ = getelementptr inbounds %"class.grpc_core::RefCount", ptr %this1, i32 0, i32 0
  store ptr %value_, ptr %this.addr.i, align 8
  store i64 1, ptr %__i.addr.i, align 8
  store i32 4, ptr %__m.addr.i, align 4
  %this1.i = load ptr, ptr %this.addr.i, align 8
  %0 = load i32, ptr %__m.addr.i, align 4
  %1 = load i64, ptr %__i.addr.i, align 8
  store i64 %1, ptr %.atomictmp.i, align 8
  switch i32 %0, label %monotonic.i [
    i32 1, label %acquire.i
    i32 2, label %acquire.i
    i32 3, label %release.i
    i32 4, label %acqrel.i
    i32 5, label %seqcst.i
  ]

monotonic.i:                                      ; preds = %entry
  %2 = load i64, ptr %.atomictmp.i, align 8
  %3 = atomicrmw sub ptr %this1.i, i64 %2 monotonic, align 8
  store i64 %3, ptr %atomic-temp.i, align 8
  br label %_ZNSt13__atomic_baseIlE9fetch_subElSt12memory_order.exit

acquire.i:                                        ; preds = %entry, %entry
  %4 = load i64, ptr %.atomictmp.i, align 8
  %5 = atomicrmw sub ptr %this1.i, i64 %4 acquire, align 8
  store i64 %5, ptr %atomic-temp.i, align 8
  br label %_ZNSt13__atomic_baseIlE9fetch_subElSt12memory_order.exit

release.i:                                        ; preds = %entry
  %6 = load i64, ptr %.atomictmp.i, align 8
  %7 = atomicrmw sub ptr %this1.i, i64 %6 release, align 8
  store i64 %7, ptr %atomic-temp.i, align 8
  br label %_ZNSt13__atomic_baseIlE9fetch_subElSt12memory_order.exit

acqrel.i:                                         ; preds = %entry
  %8 = load i64, ptr %.atomictmp.i, align 8
  %9 = atomicrmw sub ptr %this1.i, i64 %8 acq_rel, align 8
  store i64 %9, ptr %atomic-temp.i, align 8
  br label %_ZNSt13__atomic_baseIlE9fetch_subElSt12memory_order.exit

seqcst.i:                                         ; preds = %entry
  %10 = load i64, ptr %.atomictmp.i, align 8
  %11 = atomicrmw sub ptr %this1.i, i64 %10 seq_cst, align 8
  store i64 %11, ptr %atomic-temp.i, align 8
  br label %_ZNSt13__atomic_baseIlE9fetch_subElSt12memory_order.exit

_ZNSt13__atomic_baseIlE9fetch_subElSt12memory_order.exit: ; preds = %seqcst.i, %acqrel.i, %release.i, %acquire.i, %monotonic.i
  %12 = load i64, ptr %atomic-temp.i, align 8
  store i64 %12, ptr %prior, align 8
  %13 = load i64, ptr %prior, align 8
  %cmp = icmp eq i64 %13, 1
  ret i1 %cmp
}

; Function Attrs: noreturn nounwind uwtable
define linkonce_odr hidden void @__clang_call_terminate(ptr noundef %0) #8 comdat {
  %2 = call ptr @__cxa_begin_catch(ptr %0) #3
  call void @_ZSt9terminatev() #12
  unreachable
}

; Function Attrs: mustprogress uwtable
define linkonce_odr void @_ZNK9grpc_core10RefCountedINS_14DynamicFiltersENS_19PolymorphicRefCountENS_11UnrefDeleteEE5UnrefEv(ptr noundef nonnull align 8 dereferenceable(16) %this) #4 comdat align 2 {
entry:
  %this.addr = alloca ptr, align 8
  store ptr %this, ptr %this.addr, align 8
  %this1 = load ptr, ptr %this.addr, align 8
  %refs_ = getelementptr inbounds %"class.grpc_core::RefCounted", ptr %this1, i32 0, i32 1
  %call = call noundef zeroext i1 @_ZN9grpc_core8RefCount5UnrefEv(ptr noundef nonnull align 8 dereferenceable(8) %refs_)
  br i1 %call, label %if.then, label %if.end

if.then:                                          ; preds = %entry
  call void @_ZNK9grpc_core11UnrefDeleteclIKNS_14DynamicFiltersEEEvPT_(ptr noundef nonnull align 1 dereferenceable(1) %this1, ptr noundef %this1)
  br label %if.end

if.end:                                           ; preds = %if.then, %entry
  ret void
}

; Function Attrs: mustprogress nounwind uwtable
define linkonce_odr void @_ZN9grpc_core13RefCountedPtrINS_14DynamicFiltersEED2Ev(ptr noundef nonnull align 8 dereferenceable(8) %this) unnamed_addr #5 comdat align 2 personality ptr @__gxx_personality_v0 {
entry:
  %this.addr = alloca ptr, align 8
  store ptr %this, ptr %this.addr, align 8
  %this1 = load ptr, ptr %this.addr, align 8
  %value_ = getelementptr inbounds %"class.grpc_core::RefCountedPtr", ptr %this1, i32 0, i32 0
  %0 = load ptr, ptr %value_, align 8
  %cmp = icmp ne ptr %0, null
  br i1 %cmp, label %if.then, label %if.end

if.then:                                          ; preds = %entry
  %value_2 = getelementptr inbounds %"class.grpc_core::RefCountedPtr", ptr %this1, i32 0, i32 0
  %1 = load ptr, ptr %value_2, align 8
  invoke void @_ZNK9grpc_core10RefCountedINS_14DynamicFiltersENS_19PolymorphicRefCountENS_11UnrefDeleteEE5UnrefEv(ptr noundef nonnull align 8 dereferenceable(16) %1)
          to label %invoke.cont unwind label %terminate.lpad

invoke.cont:                                      ; preds = %if.then
  br label %if.end

if.end:                                           ; preds = %invoke.cont, %entry
  ret void

terminate.lpad:                                   ; preds = %if.then
  %2 = landingpad { ptr, i32 }
          catch ptr null
  %3 = extractvalue { ptr, i32 } %2, 0
  call void @__clang_call_terminate(ptr %3) #12
  unreachable
}

; Function Attrs: mustprogress nounwind uwtable
define linkonce_odr void @_ZN9grpc_core13RefCountedPtrINS_14DynamicFiltersEEC2EOS2_(ptr noundef nonnull align 8 dereferenceable(8) %this, ptr noundef nonnull align 8 dereferenceable(8) %other) unnamed_addr #5 comdat align 2 {
entry:
  %this.addr = alloca ptr, align 8
  %other.addr = alloca ptr, align 8
  store ptr %this, ptr %this.addr, align 8
  store ptr %other, ptr %other.addr, align 8
  %this1 = load ptr, ptr %this.addr, align 8
  %value_ = getelementptr inbounds %"class.grpc_core::RefCountedPtr", ptr %this1, i32 0, i32 0
  store ptr null, ptr %value_, align 8
  %0 = load ptr, ptr %other.addr, align 8
  %value_2 = getelementptr inbounds %"class.grpc_core::RefCountedPtr", ptr %0, i32 0, i32 0
  %1 = load ptr, ptr %value_2, align 8
  %value_3 = getelementptr inbounds %"class.grpc_core::RefCountedPtr", ptr %this1, i32 0, i32 0
  store ptr %1, ptr %value_3, align 8
  %2 = load ptr, ptr %other.addr, align 8
  %value_4 = getelementptr inbounds %"class.grpc_core::RefCountedPtr", ptr %2, i32 0, i32 0
  store ptr null, ptr %value_4, align 8
  ret void
}

; Function Attrs: mustprogress nounwind uwtable
define linkonce_odr void @_ZN9grpc_core13RefCountedPtrINS_14DynamicFilters4CallEEC2IS2_EEPT_(ptr noundef nonnull align 8 dereferenceable(8) %this, ptr noundef %value) unnamed_addr #5 comdat align 2 {
entry:
  %this.addr = alloca ptr, align 8
  %value.addr = alloca ptr, align 8
  store ptr %this, ptr %this.addr, align 8
  store ptr %value, ptr %value.addr, align 8
  %this1 = load ptr, ptr %this.addr, align 8
  %value_ = getelementptr inbounds %"class.grpc_core::RefCountedPtr.3", ptr %this1, i32 0, i32 0
  %0 = load ptr, ptr %value.addr, align 8
  store ptr %0, ptr %value_, align 8
  ret void
}

; Function Attrs: mustprogress nounwind uwtable
define linkonce_odr void @_ZN9grpc_core14DynamicFilters4Call4ArgsD2Ev(ptr noundef nonnull align 8 dereferenceable(88) %this) unnamed_addr #5 comdat align 2 {
entry:
  %this.addr = alloca ptr, align 8
  store ptr %this, ptr %this.addr, align 8
  %this1 = load ptr, ptr %this.addr, align 8
  %channel_stack = getelementptr inbounds %"struct.grpc_core::DynamicFilters::Call::Args", ptr %this1, i32 0, i32 0
  call void @_ZN9grpc_core13RefCountedPtrINS_14DynamicFiltersEED2Ev(ptr noundef nonnull align 8 dereferenceable(8) %channel_stack) #3
  ret void
}

; Function Attrs: mustprogress nounwind uwtable
define linkonce_odr void @_ZN9grpc_core14DynamicFilters4Call4ArgsC2EOS2_(ptr noundef nonnull align 8 dereferenceable(88) %this, ptr noundef nonnull align 8 dereferenceable(88) %0) unnamed_addr #5 comdat align 2 {
entry:
  %this.addr = alloca ptr, align 8
  %.addr = alloca ptr, align 8
  store ptr %this, ptr %this.addr, align 8
  store ptr %0, ptr %.addr, align 8
  %this1 = load ptr, ptr %this.addr, align 8
  %channel_stack = getelementptr inbounds %"struct.grpc_core::DynamicFilters::Call::Args", ptr %this1, i32 0, i32 0
  %1 = load ptr, ptr %.addr, align 8
  %channel_stack2 = getelementptr inbounds %"struct.grpc_core::DynamicFilters::Call::Args", ptr %1, i32 0, i32 0
  call void @_ZN9grpc_core13RefCountedPtrINS_14DynamicFiltersEEC2EOS2_(ptr noundef nonnull align 8 dereferenceable(8) %channel_stack, ptr noundef nonnull align 8 dereferenceable(8) %channel_stack2) #3
  %pollent = getelementptr inbounds %"struct.grpc_core::DynamicFilters::Call::Args", ptr %this1, i32 0, i32 1
  %2 = load ptr, ptr %.addr, align 8
  %pollent3 = getelementptr inbounds %"struct.grpc_core::DynamicFilters::Call::Args", ptr %2, i32 0, i32 1
  call void @llvm.memcpy.p0.p0.i64(ptr align 8 %pollent, ptr align 8 %pollent3, i64 80, i1 false)
  ret void
}

; Function Attrs: mustprogress uwtable
define linkonce_odr noundef ptr @_ZN9grpc_core5Arena5AllocEm(ptr noundef nonnull align 8 dereferenceable(48) %this, i64 noundef %size) #4 comdat align 2 {
entry:
  %this.addr.i = alloca ptr, align 8
  %__i.addr.i = alloca i64, align 8
  %__m.addr.i = alloca i32, align 4
  %.atomictmp.i = alloca i64, align 8
  %atomic-temp.i = alloca i64, align 8
  %retval = alloca ptr, align 8
  %this.addr = alloca ptr, align 8
  %size.addr = alloca i64, align 8
  %begin = alloca i64, align 8
  store ptr %this, ptr %this.addr, align 8
  store i64 %size, ptr %size.addr, align 8
  %this1 = load ptr, ptr %this.addr, align 8
  %0 = load i64, ptr %size.addr, align 8
  %add = add i64 %0, 16
  %sub = sub i64 %add, 1
  %and = and i64 %sub, 4294967280
  store i64 %and, ptr %size.addr, align 8
  %total_used_ = getelementptr inbounds %"class.grpc_core::Arena", ptr %this1, i32 0, i32 0
  %1 = load i64, ptr %size.addr, align 8
  store ptr %total_used_, ptr %this.addr.i, align 8
  store i64 %1, ptr %__i.addr.i, align 8
  store i32 0, ptr %__m.addr.i, align 4
  %this1.i = load ptr, ptr %this.addr.i, align 8
  %2 = load i32, ptr %__m.addr.i, align 4
  %3 = load i64, ptr %__i.addr.i, align 8
  store i64 %3, ptr %.atomictmp.i, align 8
  switch i32 %2, label %monotonic.i [
    i32 1, label %acquire.i
    i32 2, label %acquire.i
    i32 3, label %release.i
    i32 4, label %acqrel.i
    i32 5, label %seqcst.i
  ]

monotonic.i:                                      ; preds = %entry
  %4 = load i64, ptr %.atomictmp.i, align 8
  %5 = atomicrmw add ptr %this1.i, i64 %4 monotonic, align 8
  store i64 %5, ptr %atomic-temp.i, align 8
  br label %_ZNSt13__atomic_baseImE9fetch_addEmSt12memory_order.exit

acquire.i:                                        ; preds = %entry, %entry
  %6 = load i64, ptr %.atomictmp.i, align 8
  %7 = atomicrmw add ptr %this1.i, i64 %6 acquire, align 8
  store i64 %7, ptr %atomic-temp.i, align 8
  br label %_ZNSt13__atomic_baseImE9fetch_addEmSt12memory_order.exit

release.i:                                        ; preds = %entry
  %8 = load i64, ptr %.atomictmp.i, align 8
  %9 = atomicrmw add ptr %this1.i, i64 %8 release, align 8
  store i64 %9, ptr %atomic-temp.i, align 8
  br label %_ZNSt13__atomic_baseImE9fetch_addEmSt12memory_order.exit

acqrel.i:                                         ; preds = %entry
  %10 = load i64, ptr %.atomictmp.i, align 8
  %11 = atomicrmw add ptr %this1.i, i64 %10 acq_rel, align 8
  store i64 %11, ptr %atomic-temp.i, align 8
  br label %_ZNSt13__atomic_baseImE9fetch_addEmSt12memory_order.exit

seqcst.i:                                         ; preds = %entry
  %12 = load i64, ptr %.atomictmp.i, align 8
  %13 = atomicrmw add ptr %this1.i, i64 %12 seq_cst, align 8
  store i64 %13, ptr %atomic-temp.i, align 8
  br label %_ZNSt13__atomic_baseImE9fetch_addEmSt12memory_order.exit

_ZNSt13__atomic_baseImE9fetch_addEmSt12memory_order.exit: ; preds = %seqcst.i, %acqrel.i, %release.i, %acquire.i, %monotonic.i
  %14 = load i64, ptr %atomic-temp.i, align 8
  store i64 %14, ptr %begin, align 8
  %15 = load i64, ptr %begin, align 8
  %16 = load i64, ptr %size.addr, align 8
  %add2 = add i64 %15, %16
  %initial_zone_size_ = getelementptr inbounds %"class.grpc_core::Arena", ptr %this1, i32 0, i32 2
  %17 = load i64, ptr %initial_zone_size_, align 8
  %cmp = icmp ule i64 %add2, %17
  br i1 %cmp, label %if.then, label %if.else

if.then:                                          ; preds = %_ZNSt13__atomic_baseImE9fetch_addEmSt12memory_order.exit
  %add.ptr = getelementptr inbounds i8, ptr %this1, i64 48
  %18 = load i64, ptr %begin, align 8
  %add.ptr3 = getelementptr inbounds i8, ptr %add.ptr, i64 %18
  store ptr %add.ptr3, ptr %retval, align 8
  br label %return

if.else:                                          ; preds = %_ZNSt13__atomic_baseImE9fetch_addEmSt12memory_order.exit
  %19 = load i64, ptr %size.addr, align 8
  %call4 = call noundef ptr @_ZN9grpc_core5Arena9AllocZoneEm(ptr noundef nonnull align 8 dereferenceable(48) %this1, i64 noundef %19)
  store ptr %call4, ptr %retval, align 8
  br label %return

return:                                           ; preds = %if.else, %if.then
  %20 = load ptr, ptr %retval, align 8
  ret ptr %20
}

; Function Attrs: mustprogress nounwind uwtable
define linkonce_odr noundef ptr @_ZNK9grpc_core13RefCountedPtrI18grpc_channel_stackEptEv(ptr noundef nonnull align 8 dereferenceable(8) %this) #5 comdat align 2 {
entry:
  %this.addr = alloca ptr, align 8
  store ptr %this, ptr %this.addr, align 8
  %this1 = load ptr, ptr %this.addr, align 8
  %value_ = getelementptr inbounds %"class.grpc_core::RefCountedPtr.0", ptr %this1, i32 0, i32 0
  %0 = load ptr, ptr %value_, align 8
  ret ptr %0
}

; Function Attrs: mustprogress uwtable
define void @_ZN9grpc_core14DynamicFilters10CreateCallENS0_4Call4ArgsEPN4absl12lts_202308026StatusE(ptr noalias sret(%"class.grpc_core::RefCountedPtr.3") align 8 %agg.result, ptr noundef nonnull align 8 dereferenceable(24) %this, ptr noundef %args, ptr noundef %error) #4 align 2 personality ptr @__gxx_personality_v0 {
entry:
  %result.ptr = alloca ptr, align 8
  %this.addr = alloca ptr, align 8
  %args.indirect_addr = alloca ptr, align 8
  %error.addr = alloca ptr, align 8
  %allocation_size = alloca i64, align 8
  %call2 = alloca ptr, align 8
  %agg.tmp = alloca %"struct.grpc_core::DynamicFilters::Call::Args", align 8
  %exn.slot = alloca ptr, align 8
  %ehselector.slot = alloca i32, align 4
  store ptr %agg.result, ptr %result.ptr, align 8
  store ptr %this, ptr %this.addr, align 8
  store ptr %args, ptr %args.indirect_addr, align 8
  store ptr %error, ptr %error.addr, align 8
  %this1 = load ptr, ptr %this.addr, align 8
  %channel_stack_ = getelementptr inbounds %"class.grpc_core::DynamicFilters", ptr %this1, i32 0, i32 1
  %call = call noundef ptr @_ZNK9grpc_core13RefCountedPtrI18grpc_channel_stackEptEv(ptr noundef nonnull align 8 dereferenceable(8) %channel_stack_)
  %call_stack_size = getelementptr inbounds %struct.grpc_channel_stack, ptr %call, i32 0, i32 2
  %0 = load i64, ptr %call_stack_size, align 8
  %add = add i64 16, %0
  store i64 %add, ptr %allocation_size, align 8
  %arena = getelementptr inbounds %"struct.grpc_core::DynamicFilters::Call::Args", ptr %args, i32 0, i32 5
  %1 = load ptr, ptr %arena, align 8
  %2 = load i64, ptr %allocation_size, align 8
  %call3 = call noundef ptr @_ZN9grpc_core5Arena5AllocEm(ptr noundef nonnull align 8 dereferenceable(48) %1, i64 noundef %2)
  store ptr %call3, ptr %call2, align 8
  %3 = load ptr, ptr %call2, align 8
  call void @_ZN9grpc_core14DynamicFilters4Call4ArgsC2EOS2_(ptr noundef nonnull align 8 dereferenceable(88) %agg.tmp, ptr noundef nonnull align 8 dereferenceable(88) %args) #3
  %4 = load ptr, ptr %error.addr, align 8
  invoke void @_ZN9grpc_core14DynamicFilters4CallC1ENS1_4ArgsEPN4absl12lts_202308026StatusE(ptr noundef nonnull align 8 dereferenceable(16) %3, ptr noundef %agg.tmp, ptr noundef %4)
          to label %invoke.cont unwind label %lpad

invoke.cont:                                      ; preds = %entry
  call void @_ZN9grpc_core14DynamicFilters4Call4ArgsD2Ev(ptr noundef nonnull align 8 dereferenceable(88) %agg.tmp) #3
  %5 = load ptr, ptr %call2, align 8
  call void @_ZN9grpc_core13RefCountedPtrINS_14DynamicFilters4CallEEC2IS2_EEPT_(ptr noundef nonnull align 8 dereferenceable(8) %agg.result, ptr noundef %5)
  ret void

lpad:                                             ; preds = %entry
  %6 = landingpad { ptr, i32 }
          cleanup
  %7 = extractvalue { ptr, i32 } %6, 0
  store ptr %7, ptr %exn.slot, align 8
  %8 = extractvalue { ptr, i32 } %6, 1
  store i32 %8, ptr %ehselector.slot, align 4
  call void @_ZN9grpc_core14DynamicFilters4Call4ArgsD2Ev(ptr noundef nonnull align 8 dereferenceable(88) %agg.tmp) #3
  br label %eh.resume

eh.resume:                                        ; preds = %lpad
  %exn = load ptr, ptr %exn.slot, align 8
  %sel = load i32, ptr %ehselector.slot, align 4
  %lpad.val = insertvalue { ptr, i32 } poison, ptr %exn, 0
  %lpad.val4 = insertvalue { ptr, i32 } %lpad.val, i32 %sel, 1
  resume { ptr, i32 } %lpad.val4
}