; Function Attrs: mustprogress uwtable
define void @_ZN9grpc_core14DynamicFilters10CreateCallENS0_4Call4ArgsEPN4absl12lts_202308026StatusE(ptr noalias nocapture writeonly sret(%"class.grpc_core::RefCountedPtr.3") align 8 %agg.result, ptr nocapture noundef nonnull readonly align 8 dereferenceable(24) %this, ptr nocapture noundef %args, ptr noundef %error) local_unnamed_addr #3 align 2 personality ptr @__gxx_personality_v0 {
entry:
  %agg.tmp = alloca %"struct.grpc_core::DynamicFilters::Call::Args", align 8
  %channel_stack_ = getelementptr inbounds i8, ptr %this, i64 16
  %0 = load ptr, ptr %channel_stack_, align 8
  %call_stack_size = getelementptr inbounds i8, ptr %0, i64 48
  %1 = load i64, ptr %call_stack_size, align 8
  %arena = getelementptr inbounds i8, ptr %args, i64 64
  %2 = load ptr, ptr %arena, align 8
  %sub.i = add i64 %1, 31
  %and.i = and i64 %sub.i, 4294967280
  %3 = atomicrmw add ptr %2, i64 %and.i monotonic, align 8
  %add2.i = add i64 %3, %and.i
  %initial_zone_size_.i = getelementptr inbounds i8, ptr %2, i64 16
  %4 = load i64, ptr %initial_zone_size_.i, align 8
  %cmp.not.i = icmp ugt i64 %add2.i, %4
  br i1 %cmp.not.i, label %if.else.i, label %if.then.i

if.then.i:                                        ; preds = %entry
  %add.ptr.i = getelementptr inbounds i8, ptr %2, i64 48
  %add.ptr3.i = getelementptr inbounds i8, ptr %add.ptr.i, i64 %3
  br label %_ZN9grpc_core5Arena5AllocEm.exit

if.else.i:                                        ; preds = %entry
  %call4.i = tail call noundef ptr @_ZN9grpc_core5Arena9AllocZoneEm(ptr noundef nonnull align 8 dereferenceable(48) %2, i64 noundef %and.i)
  br label %_ZN9grpc_core5Arena5AllocEm.exit

_ZN9grpc_core5Arena5AllocEm.exit:                 ; preds = %if.then.i, %if.else.i
  %retval.0.i = phi ptr [ %add.ptr3.i, %if.then.i ], [ %call4.i, %if.else.i ]
  %5 = load ptr, ptr %args, align 8
  store ptr %5, ptr %agg.tmp, align 8
  store ptr null, ptr %args, align 8
  %pollent.i = getelementptr inbounds i8, ptr %agg.tmp, i64 8
  %pollent3.i = getelementptr inbounds i8, ptr %args, i64 8
  call void @llvm.memcpy.p0.p0.i64(ptr noundef nonnull align 8 dereferenceable(80) %pollent.i, ptr noundef nonnull align 8 dereferenceable(80) %pollent3.i, i64 80, i1 false)
  invoke void @_ZN9grpc_core14DynamicFilters4CallC1ENS1_4ArgsEPN4absl12lts_202308026StatusE(ptr noundef nonnull align 8 dereferenceable(16) %retval.0.i, ptr noundef nonnull %agg.tmp, ptr noundef %error)
          to label %invoke.cont unwind label %lpad

invoke.cont:                                      ; preds = %_ZN9grpc_core5Arena5AllocEm.exit
  %6 = load ptr, ptr %agg.tmp, align 8
  %cmp.not.i.i = icmp eq ptr %6, null
  br i1 %cmp.not.i.i, label %_ZN9grpc_core14DynamicFilters4Call4ArgsD2Ev.exit, label %if.then.i.i

if.then.i.i:                                      ; preds = %invoke.cont
  %refs_.i.i.i = getelementptr inbounds i8, ptr %6, i64 8
  %7 = atomicrmw sub ptr %refs_.i.i.i, i64 1 acq_rel, align 8
  %cmp.i.i.i.i = icmp eq i64 %7, 1
  br i1 %cmp.i.i.i.i, label %if.then.i.i.i, label %_ZN9grpc_core14DynamicFilters4Call4ArgsD2Ev.exit

if.then.i.i.i:                                    ; preds = %if.then.i.i
  %vtable.i.i.i.i = load ptr, ptr %6, align 8
  %vfn.i.i.i.i = getelementptr inbounds i8, ptr %vtable.i.i.i.i, i64 8
  %8 = load ptr, ptr %vfn.i.i.i.i, align 8
  call void %8(ptr noundef nonnull align 8 dereferenceable(24) %6) #17
  br label %_ZN9grpc_core14DynamicFilters4Call4ArgsD2Ev.exit

_ZN9grpc_core14DynamicFilters4Call4ArgsD2Ev.exit: ; preds = %invoke.cont, %if.then.i.i, %if.then.i.i.i
  store ptr %retval.0.i, ptr %agg.result, align 8
  ret void

lpad:                                             ; preds = %_ZN9grpc_core5Arena5AllocEm.exit
  %9 = landingpad { ptr, i32 }
          cleanup
  %10 = load ptr, ptr %agg.tmp, align 8
  %cmp.not.i.i2 = icmp eq ptr %10, null
  br i1 %cmp.not.i.i2, label %_ZN9grpc_core14DynamicFilters4Call4ArgsD2Ev.exit9, label %if.then.i.i3

if.then.i.i3:                                     ; preds = %lpad
  %refs_.i.i.i4 = getelementptr inbounds i8, ptr %10, i64 8
  %11 = atomicrmw sub ptr %refs_.i.i.i4, i64 1 acq_rel, align 8
  %cmp.i.i.i.i5 = icmp eq i64 %11, 1
  br i1 %cmp.i.i.i.i5, label %if.then.i.i.i6, label %_ZN9grpc_core14DynamicFilters4Call4ArgsD2Ev.exit9

if.then.i.i.i6:                                   ; preds = %if.then.i.i3
  %vtable.i.i.i.i7 = load ptr, ptr %10, align 8
  %vfn.i.i.i.i8 = getelementptr inbounds i8, ptr %vtable.i.i.i.i7, i64 8
  %12 = load ptr, ptr %vfn.i.i.i.i8, align 8
  call void %12(ptr noundef nonnull align 8 dereferenceable(24) %10) #17
  br label %_ZN9grpc_core14DynamicFilters4Call4ArgsD2Ev.exit9

_ZN9grpc_core14DynamicFilters4Call4ArgsD2Ev.exit9: ; preds = %lpad, %if.then.i.i3, %if.then.i.i.i6
  resume { ptr, i32 } %9
}